; Function Attrs: mustprogress nounwind uwtable
define noundef zeroext i16 @_ZNK8proxygen15HTTPTransaction20getDatagramSizeLimitEv(ptr nocapture noundef nonnull readonly align 8 dereferenceable(912) %this) local_unnamed_addr #5 align 2 {
entry:
  %transport_ = getelementptr inbounds i8, ptr %this, i64 272
  %0 = load ptr, ptr %transport_, align 8
  %vtable = load ptr, ptr %0, align 8
  %vfn = getelementptr inbounds i8, ptr %vtable, i64 352
  %1 = load ptr, ptr %vfn, align 8
  %call = tail call noundef zeroext i16 %1(ptr noundef nonnull align 8 dereferenceable(8) %0) #27
  ret i16 %call
}